; Function Attrs: mustprogress nofree norecurse nosync nounwind willreturn memory(read, inaccessiblemem: none) uwtable
define hidden noundef zeroext i1 @_ZNK5Klass25can_be_primary_super_slowEv(ptr nocapture noundef nonnull readonly align 8 dereferenceable(196) %0) unnamed_addr #4 align 2 {
  %2 = getelementptr inbounds i8, ptr %0, i64 120
  %3 = load ptr, ptr %2, align 8
  %4 = icmp eq ptr %3, null
  br i1 %4, label %9, label %5

5:                                                ; preds = %1
  %6 = getelementptr inbounds i8, ptr %3, i64 20
  %7 = load i32, ptr %6, align 4
  %8 = add i32 %7, -48
  %.not2 = icmp ult i32 %8, 56
  br label %9

9:                                                ; preds = %5, %1
  %.0 = phi i1 [ true, %1 ], [ %.not2, %5 ]
  ret i1 %.0
}